target datalayout = "e-m:e-p270:32:32-p271:32:32-p272:64:64-i64:64-i128:128-f80:128-n8:16:32:64-S128"
target triple = "x86_64-pc-linux-gnu"

@hf_zbee_zdp_nwk_addr = external global i32, align 4
@.str.1 = private unnamed_addr constant [19 x i8] c", Nwk Addr: 0x%04x\00", align 1
@.str.13 = private unnamed_addr constant [13 x i8] c", Status: %s\00", align 1
@hf_zbee_zdp_complex_length = external global i32, align 4

; Function Attrs: nounwind uwtable
define hidden void @dissect_zbee_zdp_rsp_complex_desc(ptr noundef %0, ptr noundef %1, ptr noundef %2) #0 {
  %4 = alloca ptr, align 8
  %5 = alloca ptr, align 8
  %6 = alloca ptr, align 8
  %7 = alloca i32, align 4
  %8 = alloca i8, align 1
  %9 = alloca i32, align 4
  %10 = alloca i32, align 4
  store ptr %0, ptr %4, align 8
  store ptr %1, ptr %5, align 8
  store ptr %2, ptr %6, align 8
  store i32 0, ptr %7, align 4
  %11 = load ptr, ptr %6, align 8
  %12 = load ptr, ptr %4, align 8
  %13 = call zeroext i8 @zdp_parse_status(ptr noundef %11, ptr noundef %12, ptr noundef %7)
  store i8 %13, ptr %8, align 1
  %14 = load i8, ptr %8, align 1
  %15 = zext i8 %14 to i32
  %16 = icmp eq i32 %15, 0
  br i1 %16, label %22, label %17

17:                                               ; preds = %3
  %18 = load ptr, ptr %4, align 8
  %19 = load i32, ptr %7, align 4
  %20 = call i32 @tvb_bytes_exist(ptr noundef %18, i32 noundef %19, i32 noundef 2)
  %21 = icmp ne i32 %20, 0
  br i1 %21, label %22, label %33

22:                                               ; preds = %17, %3
  %23 = load ptr, ptr %6, align 8
  %24 = load i32, ptr @hf_zbee_zdp_nwk_addr, align 4
  %25 = load ptr, ptr %4, align 8
  %26 = load i32, ptr %7, align 4
  %27 = call ptr @proto_tree_add_item_ret_uint(ptr noundef %23, i32 noundef %24, ptr noundef %25, i32 noundef %26, i32 noundef 2, i32 noundef -2147483648, ptr noundef %9)
  %28 = load ptr, ptr %6, align 8
  %29 = load ptr, ptr %5, align 8
  %30 = load i32, ptr %9, align 4
  call void (ptr, ptr, ptr, ...) @zbee_append_info(ptr noundef %28, ptr noundef %29, ptr noundef @.str.1, i32 noundef %30)
  %31 = load i32, ptr %7, align 4
  %32 = add i32 %31, 2
  store i32 %32, ptr %7, align 4
  br label %33

33:                                               ; preds = %22, %17
  %34 = load i8, ptr %8, align 1
  %35 = zext i8 %34 to i32
  %36 = icmp eq i32 %35, 0
  br i1 %36, label %42, label %37

37:                                               ; preds = %33
  %38 = load ptr, ptr %4, align 8
  %39 = load i32, ptr %7, align 4
  %40 = call i32 @tvb_bytes_exist(ptr noundef %38, i32 noundef %39, i32 noundef 1)
  %41 = icmp ne i32 %40, 0
  br i1 %41, label %42, label %62

42:                                               ; preds = %37, %33
  %43 = load ptr, ptr %6, align 8
  %44 = load i32, ptr @hf_zbee_zdp_complex_length, align 4
  %45 = load ptr, ptr %4, align 8
  %46 = load i32, ptr %7, align 4
  %47 = call ptr @proto_tree_add_item_ret_uint(ptr noundef %43, i32 noundef %44, ptr noundef %45, i32 noundef %46, i32 noundef 1, i32 noundef -2147483648, ptr noundef %10)
  %48 = load i32, ptr %7, align 4
  %49 = add i32 %48, 1
  store i32 %49, ptr %7, align 4
  %50 = load i32, ptr %10, align 4
  %51 = icmp ne i32 %50, 0
  br i1 %51, label %52, label %57

52:                                               ; preds = %42
  %53 = load ptr, ptr %5, align 8
  %54 = load ptr, ptr %6, align 8
  %55 = load ptr, ptr %4, align 8
  %56 = load i32, ptr %10, align 4
  call void @zdp_parse_complex_desc(ptr noundef %53, ptr noundef %54, i32 noundef -1, ptr noundef %55, ptr noundef %7, i32 noundef %56)
  br label %57

57:                                               ; preds = %52, %42
  %58 = load ptr, ptr %4, align 8
  %59 = load i32, ptr %7, align 4
  %60 = load ptr, ptr %5, align 8
  %61 = load ptr, ptr %6, align 8
  call void @zdp_dump_excess(ptr noundef %58, i32 noundef %59, ptr noundef %60, ptr noundef %61)
  br label %62

62:                                               ; preds = %57, %37
  %63 = load ptr, ptr %6, align 8
  %64 = load ptr, ptr %5, align 8
  %65 = load i8, ptr %8, align 1
  %66 = call ptr @zdp_status_name(i8 noundef zeroext %65)
  call void (ptr, ptr, ptr, ...) @zbee_append_info(ptr noundef %63, ptr noundef %64, ptr noundef @.str.13, ptr noundef %66)
  ret void
}