; Function Attrs: nounwind uwtable
define hidden void @dissect_zbee_zdp_rsp_complex_desc(ptr noundef %0, ptr noundef %1, ptr noundef %2) local_unnamed_addr #0 {
  %4 = alloca i32, align 4
  %5 = alloca i32, align 4
  %6 = alloca i32, align 4
  store i32 0, ptr %4, align 4
  %7 = call zeroext i8 @zdp_parse_status(ptr noundef %2, ptr noundef %0, ptr noundef nonnull %4) #2
  %8 = icmp eq i8 %7, 0
  br i1 %8, label %.critedge, label %9

9:                                                ; preds = %3
  %10 = load i32, ptr %4, align 4
  %11 = call i32 @tvb_bytes_exist(ptr noundef %0, i32 noundef %10, i32 noundef 2) #2
  %.not = icmp eq i32 %11, 0
  %.pre = load i32, ptr %4, align 4
  br i1 %.not, label %.thread, label %12

12:                                               ; preds = %9
  %13 = load i32, ptr @hf_zbee_zdp_nwk_addr, align 4
  %14 = call ptr @proto_tree_add_item_ret_uint(ptr noundef %2, i32 noundef %13, ptr noundef %0, i32 noundef %.pre, i32 noundef 2, i32 noundef -2147483648, ptr noundef nonnull %5) #2
  %15 = load i32, ptr %5, align 4
  call void (ptr, ptr, ptr, ...) @zbee_append_info(ptr noundef %2, ptr noundef %1, ptr noundef nonnull @.str.1, i32 noundef %15) #2
  %16 = load i32, ptr %4, align 4
  %17 = add i32 %16, 2
  store i32 %17, ptr %4, align 4
  br label %.thread

.thread:                                          ; preds = %12, %9
  %18 = phi i32 [ %17, %12 ], [ %.pre, %9 ]
  %19 = call i32 @tvb_bytes_exist(ptr noundef %0, i32 noundef %18, i32 noundef 1) #2
  %.not20 = icmp eq i32 %19, 0
  br i1 %.not20, label %36, label %.thread._crit_edge

.thread._crit_edge:                               ; preds = %.thread
  %.pre22 = load i32, ptr %4, align 4
  br label %26

.critedge:                                        ; preds = %3
  %20 = load i32, ptr @hf_zbee_zdp_nwk_addr, align 4
  %21 = load i32, ptr %4, align 4
  %22 = call ptr @proto_tree_add_item_ret_uint(ptr noundef %2, i32 noundef %20, ptr noundef %0, i32 noundef %21, i32 noundef 2, i32 noundef -2147483648, ptr noundef nonnull %5) #2
  %23 = load i32, ptr %5, align 4
  call void (ptr, ptr, ptr, ...) @zbee_append_info(ptr noundef %2, ptr noundef %1, ptr noundef nonnull @.str.1, i32 noundef %23) #2
  %24 = load i32, ptr %4, align 4
  %25 = add i32 %24, 2
  store i32 %25, ptr %4, align 4
  br label %26

26:                                               ; preds = %.thread._crit_edge, %.critedge
  %27 = phi i32 [ %.pre22, %.thread._crit_edge ], [ %25, %.critedge ]
  %28 = load i32, ptr @hf_zbee_zdp_complex_length, align 4
  %29 = call ptr @proto_tree_add_item_ret_uint(ptr noundef %2, i32 noundef %28, ptr noundef %0, i32 noundef %27, i32 noundef 1, i32 noundef -2147483648, ptr noundef nonnull %6) #2
  %30 = load i32, ptr %4, align 4
  %31 = add i32 %30, 1
  store i32 %31, ptr %4, align 4
  %32 = load i32, ptr %6, align 4
  %.not21 = icmp eq i32 %32, 0
  br i1 %.not21, label %34, label %33

33:                                               ; preds = %26
  call void @zdp_parse_complex_desc(ptr noundef %1, ptr noundef %2, i32 noundef -1, ptr noundef %0, ptr noundef nonnull %4, i32 noundef %32) #2
  %.pre23 = load i32, ptr %4, align 4
  br label %34

34:                                               ; preds = %33, %26
  %35 = phi i32 [ %.pre23, %33 ], [ %31, %26 ]
  call void @zdp_dump_excess(ptr noundef %0, i32 noundef %35, ptr noundef %1, ptr noundef %2) #2
  br label %36

36:                                               ; preds = %34, %.thread
  %37 = call ptr @zdp_status_name(i8 noundef zeroext %7) #2
  call void (ptr, ptr, ptr, ...) @zbee_append_info(ptr noundef %2, ptr noundef %1, ptr noundef nonnull @.str.13, ptr noundef %37) #2
  ret void
}